target datalayout = "e-m:e-p270:32:32-p271:32:32-p272:64:64-i64:64-i128:128-f80:128-n8:16:32:64-S128"
target triple = "x86_64-pc-linux-gnu"

%struct._FUserData = type { ptr, ptr, ptr, ptr, ptr, ptr, ptr, ptr, ptr }

; Function Attrs: nounwind uwtable
define internal zeroext i1 @eval_g(i32 noundef %0, ptr noundef %1, i1 noundef zeroext %2, i32 noundef %3, ptr noundef %4, ptr noundef %5) #0 {
  %7 = alloca i32, align 4
  %8 = alloca ptr, align 8
  %9 = alloca i8, align 1
  %10 = alloca i32, align 4
  %11 = alloca ptr, align 8
  %12 = alloca ptr, align 8
  %13 = alloca i32, align 4
  %14 = alloca i32, align 4
  %15 = alloca i32, align 4
  %16 = alloca ptr, align 8
  %17 = alloca ptr, align 8
  %18 = alloca ptr, align 8
  %19 = alloca i32, align 4
  store i32 %0, ptr %7, align 4, !tbaa !11
  store ptr %1, ptr %8, align 8, !tbaa !8
  %20 = zext i1 %2 to i8
  store i8 %20, ptr %9, align 1, !tbaa !24
  store i32 %3, ptr %10, align 4, !tbaa !11
  store ptr %4, ptr %11, align 8, !tbaa !8
  store ptr %5, ptr %12, align 8, !tbaa !10
  call void @llvm.lifetime.start.p0(i64 4, ptr %13) #6
  %21 = load i32, ptr %7, align 4, !tbaa !11
  store i32 %21, ptr %13, align 4, !tbaa !11
  call void @llvm.lifetime.start.p0(i64 4, ptr %14) #6
  %22 = load i8, ptr %9, align 1, !tbaa !24, !range !26, !noundef !27
  %23 = trunc i8 %22 to i1
  %24 = zext i1 %23 to i32
  store i32 %24, ptr %14, align 4, !tbaa !11
  call void @llvm.lifetime.start.p0(i64 4, ptr %15) #6
  %25 = load i32, ptr %10, align 4, !tbaa !11
  store i32 %25, ptr %15, align 4, !tbaa !11
  call void @llvm.lifetime.start.p0(i64 8, ptr %16) #6
  %26 = load ptr, ptr %12, align 8, !tbaa !10
  store ptr %26, ptr %16, align 8, !tbaa !13
  call void @llvm.lifetime.start.p0(i64 8, ptr %17) #6
  %27 = load ptr, ptr %16, align 8, !tbaa !13
  %28 = getelementptr inbounds nuw %struct._FUserData, ptr %27, i32 0, i32 0
  %29 = load ptr, ptr %28, align 8, !tbaa !28
  store ptr %29, ptr %17, align 8, !tbaa !3
  call void @llvm.lifetime.start.p0(i64 8, ptr %18) #6
  %30 = load ptr, ptr %16, align 8, !tbaa !13
  %31 = getelementptr inbounds nuw %struct._FUserData, ptr %30, i32 0, i32 1
  %32 = load ptr, ptr %31, align 8, !tbaa !29
  store ptr %32, ptr %18, align 8, !tbaa !8
  call void @llvm.lifetime.start.p0(i64 4, ptr %19) #6
  store i32 0, ptr %19, align 4, !tbaa !11
  %33 = load ptr, ptr %16, align 8, !tbaa !13
  %34 = getelementptr inbounds nuw %struct._FUserData, ptr %33, i32 0, i32 3
  %35 = load ptr, ptr %34, align 8, !tbaa !19
  %36 = load ptr, ptr %8, align 8, !tbaa !8
  %37 = load ptr, ptr %11, align 8, !tbaa !8
  %38 = load ptr, ptr %17, align 8, !tbaa !3
  %39 = load ptr, ptr %18, align 8, !tbaa !8
  call void %35(ptr noundef %13, ptr noundef %36, ptr noundef %14, ptr noundef %15, ptr noundef %37, ptr noundef %38, ptr noundef %39, ptr noundef %19)
  %40 = load i32, ptr %19, align 4, !tbaa !11
  %41 = icmp eq i32 %40, 0
  call void @llvm.lifetime.end.p0(i64 4, ptr %19) #6
  call void @llvm.lifetime.end.p0(i64 8, ptr %18) #6
  call void @llvm.lifetime.end.p0(i64 8, ptr %17) #6
  call void @llvm.lifetime.end.p0(i64 8, ptr %16) #6
  call void @llvm.lifetime.end.p0(i64 4, ptr %15) #6
  call void @llvm.lifetime.end.p0(i64 4, ptr %14) #6
  call void @llvm.lifetime.end.p0(i64 4, ptr %13) #6
  ret i1 %41
}