; Function Attrs: nounwind uwtable
define internal zeroext i1 @eval_g(i32 noundef %0, ptr noundef %1, i1 noundef zeroext %2, i32 noundef %3, ptr noundef %4, ptr noundef readonly captures(none) %5) #0 {
  %7 = alloca i32, align 4
  %8 = alloca i32, align 4
  %9 = alloca i32, align 4
  %10 = alloca i32, align 4
  call void @llvm.lifetime.start.p0(i64 4, ptr nonnull %7) #8
  store i32 %0, ptr %7, align 4, !tbaa !3
  call void @llvm.lifetime.start.p0(i64 4, ptr nonnull %8) #8
  %11 = zext i1 %2 to i32
  store i32 %11, ptr %8, align 4, !tbaa !3
  call void @llvm.lifetime.start.p0(i64 4, ptr nonnull %9) #8
  store i32 %3, ptr %9, align 4, !tbaa !3
  %12 = load ptr, ptr %5, align 8, !tbaa !19
  %13 = getelementptr inbounds nuw i8, ptr %5, i64 8
  %14 = load ptr, ptr %13, align 8, !tbaa !20
  call void @llvm.lifetime.start.p0(i64 4, ptr nonnull %10) #8
  store i32 0, ptr %10, align 4, !tbaa !3
  %15 = getelementptr inbounds nuw i8, ptr %5, i64 24
  %16 = load ptr, ptr %15, align 8, !tbaa !14
  call void %16(ptr noundef nonnull %7, ptr noundef %1, ptr noundef nonnull %8, ptr noundef nonnull %9, ptr noundef %4, ptr noundef %12, ptr noundef %14, ptr noundef nonnull %10) #8
  %17 = load i32, ptr %10, align 4, !tbaa !3
  %18 = icmp eq i32 %17, 0
  call void @llvm.lifetime.end.p0(i64 4, ptr nonnull %10) #8
  call void @llvm.lifetime.end.p0(i64 4, ptr nonnull %9) #8
  call void @llvm.lifetime.end.p0(i64 4, ptr nonnull %8) #8
  call void @llvm.lifetime.end.p0(i64 4, ptr nonnull %7) #8
  ret i1 %18
}